target datalayout = "e-m:e-p270:32:32-p271:32:32-p272:64:64-i64:64-i128:128-f80:128-n8:16:32:64-S128"
target triple = "x86_64-pc-linux-gnu"

%struct.b2World = type { %struct.b2ArenaAllocator, %struct.b2BroadPhase, %struct.b2ConstraintGraph, %struct.b2IdPool, %struct.b2BodyArray, %struct.b2IdPool, %struct.b2SolverSetArray, %struct.b2IdPool, %struct.b2JointArray, %struct.b2IdPool, %struct.b2ContactArray, %struct.b2IdPool, %struct.b2IslandArray, %struct.b2IdPool, %struct.b2IdPool, %struct.b2ShapeArray, %struct.b2ChainShapeArray, %struct.b2SensorArray, %struct.b2TaskContextArray, %struct.b2SensorTaskContextArray, %struct.b2BodyMoveEventArray, %struct.b2SensorBeginTouchEventArray, %struct.b2ContactBeginTouchEventArray, [2 x %struct.b2SensorEndTouchEventArray], [2 x %struct.b2ContactEndTouchEventArray], i32, %struct.b2ContactHitEventArray, %struct.b2BitSet, %struct.b2BitSet, %struct.b2BitSet, i64, i32, %struct.b2Vec2, float, float, float, float, float, float, float, float, ptr, ptr, i16, %struct.b2Profile, ptr, ptr, ptr, ptr, i32, ptr, ptr, ptr, ptr, ptr, float, i32, i32, i16, i8, i8, i8, i8, i8, i8 }
%struct.b2ArenaAllocator = type { ptr, i32, i32, i32, i32, %struct.b2ArenaEntryArray }
%struct.b2ArenaEntryArray = type { ptr, i32, i32 }
%struct.b2BroadPhase = type { [3 x %struct.b2DynamicTree], i32, %struct.b2HashSet, %struct.b2IntArray, ptr, ptr, i32, %struct.b2AtomicInt, %struct.b2HashSet }
%struct.b2DynamicTree = type { ptr, i32, i32, i32, i32, i32, ptr, ptr, ptr, ptr, i32 }
%struct.b2IntArray = type { ptr, i32, i32 }
%struct.b2AtomicInt = type { i32 }
%struct.b2HashSet = type { ptr, i32, i32 }
%struct.b2ConstraintGraph = type { [12 x %struct.b2GraphColor] }
%struct.b2GraphColor = type { %struct.b2BitSet, %struct.b2ContactSimArray, %struct.b2JointSimArray, %union.anon }
%struct.b2ContactSimArray = type { ptr, i32, i32 }
%struct.b2JointSimArray = type { ptr, i32, i32 }
%union.anon = type { ptr }
%struct.b2BodyArray = type { ptr, i32, i32 }
%struct.b2SolverSetArray = type { ptr, i32, i32 }
%struct.b2JointArray = type { ptr, i32, i32 }
%struct.b2ContactArray = type { ptr, i32, i32 }
%struct.b2IslandArray = type { ptr, i32, i32 }
%struct.b2IdPool = type { %struct.b2IntArray, i32 }
%struct.b2ShapeArray = type { ptr, i32, i32 }
%struct.b2ChainShapeArray = type { ptr, i32, i32 }
%struct.b2SensorArray = type { ptr, i32, i32 }
%struct.b2TaskContextArray = type { ptr, i32, i32 }
%struct.b2SensorTaskContextArray = type { ptr, i32, i32 }
%struct.b2BodyMoveEventArray = type { ptr, i32, i32 }
%struct.b2SensorBeginTouchEventArray = type { ptr, i32, i32 }
%struct.b2ContactBeginTouchEventArray = type { ptr, i32, i32 }
%struct.b2SensorEndTouchEventArray = type { ptr, i32, i32 }
%struct.b2ContactEndTouchEventArray = type { ptr, i32, i32 }
%struct.b2ContactHitEventArray = type { ptr, i32, i32 }
%struct.b2BitSet = type { ptr, i32, i32 }
%struct.b2Vec2 = type { float, float }
%struct.b2Profile = type { float, float, float, float, float, float, float, float, float, float, float, float, float, float, float, float, float, float, float, float, float, float }
%struct.b2Transform = type { %struct.b2Vec2, %struct.b2Rot }
%struct.b2Rot = type { float, float }
%struct.b2WorldId = type { i16, i16 }
%struct.b2Polygon = type { [8 x %struct.b2Vec2], [8 x %struct.b2Vec2], %struct.b2Vec2, float, i32 }
%struct.b2TreeStats = type { i32, i32 }
%struct.b2QueryFilter = type { i64, i64 }
%struct.WorldRayCastContext = type { ptr, ptr, %struct.b2QueryFilter, float, ptr }
%struct.b2ShapeCastInput = type { [8 x %struct.b2Vec2], i32, float, %struct.b2Vec2, float }

@b2_worlds = hidden global [128 x %struct.b2World] zeroinitializer, align 16

; Function Attrs: inlinehint nounwind uwtable
define internal <2 x float> @b2TransformPoint(<2 x float> %0, <2 x float> %1, <2 x float> %2) #8 {
  %4 = alloca %struct.b2Vec2, align 4
  %5 = alloca %struct.b2Transform, align 4
  %6 = alloca %struct.b2Vec2, align 4
  %7 = alloca float, align 4
  %8 = alloca float, align 4
  %9 = getelementptr inbounds nuw { <2 x float>, <2 x float> }, ptr %5, i32 0, i32 0
  store <2 x float> %0, ptr %9, align 4
  %10 = getelementptr inbounds nuw { <2 x float>, <2 x float> }, ptr %5, i32 0, i32 1
  store <2 x float> %1, ptr %10, align 4
  store <2 x float> %2, ptr %6, align 4
  call void @llvm.lifetime.start.p0(i64 4, ptr %7) #10
  %11 = getelementptr inbounds nuw %struct.b2Transform, ptr %5, i32 0, i32 1
  %12 = getelementptr inbounds nuw %struct.b2Rot, ptr %11, i32 0, i32 0
  %13 = load float, ptr %12, align 4, !tbaa !414
  %14 = getelementptr inbounds nuw %struct.b2Vec2, ptr %6, i32 0, i32 0
  %15 = load float, ptr %14, align 4, !tbaa !341
  %16 = fmul float %13, %15
  %17 = getelementptr inbounds nuw %struct.b2Transform, ptr %5, i32 0, i32 1
  %18 = getelementptr inbounds nuw %struct.b2Rot, ptr %17, i32 0, i32 1
  %19 = load float, ptr %18, align 4, !tbaa !415
  %20 = getelementptr inbounds nuw %struct.b2Vec2, ptr %6, i32 0, i32 1
  %21 = load float, ptr %20, align 4, !tbaa !343
  %22 = fmul float %19, %21
  %23 = fsub float %16, %22
  %24 = getelementptr inbounds nuw %struct.b2Transform, ptr %5, i32 0, i32 0
  %25 = getelementptr inbounds nuw %struct.b2Vec2, ptr %24, i32 0, i32 0
  %26 = load float, ptr %25, align 4, !tbaa !416
  %27 = fadd float %23, %26
  store float %27, ptr %7, align 4, !tbaa !124
  call void @llvm.lifetime.start.p0(i64 4, ptr %8) #10
  %28 = getelementptr inbounds nuw %struct.b2Transform, ptr %5, i32 0, i32 1
  %29 = getelementptr inbounds nuw %struct.b2Rot, ptr %28, i32 0, i32 1
  %30 = load float, ptr %29, align 4, !tbaa !415
  %31 = getelementptr inbounds nuw %struct.b2Vec2, ptr %6, i32 0, i32 0
  %32 = load float, ptr %31, align 4, !tbaa !341
  %33 = fmul float %30, %32
  %34 = getelementptr inbounds nuw %struct.b2Transform, ptr %5, i32 0, i32 1
  %35 = getelementptr inbounds nuw %struct.b2Rot, ptr %34, i32 0, i32 0
  %36 = load float, ptr %35, align 4, !tbaa !414
  %37 = getelementptr inbounds nuw %struct.b2Vec2, ptr %6, i32 0, i32 1
  %38 = load float, ptr %37, align 4, !tbaa !343
  %39 = fmul float %36, %38
  %40 = fadd float %33, %39
  %41 = getelementptr inbounds nuw %struct.b2Transform, ptr %5, i32 0, i32 0
  %42 = getelementptr inbounds nuw %struct.b2Vec2, ptr %41, i32 0, i32 1
  %43 = load float, ptr %42, align 4, !tbaa !417
  %44 = fadd float %40, %43
  store float %44, ptr %8, align 4, !tbaa !124
  %45 = getelementptr inbounds nuw %struct.b2Vec2, ptr %4, i32 0, i32 0
  %46 = load float, ptr %7, align 4, !tbaa !124
  store float %46, ptr %45, align 4, !tbaa !341
  %47 = getelementptr inbounds nuw %struct.b2Vec2, ptr %4, i32 0, i32 1
  %48 = load float, ptr %8, align 4, !tbaa !124
  store float %48, ptr %47, align 4, !tbaa !343
  call void @llvm.lifetime.end.p0(i64 4, ptr %8) #10
  call void @llvm.lifetime.end.p0(i64 4, ptr %7) #10
  %49 = load <2 x float>, ptr %4, align 4
  ret <2 x float> %49
}

; Function Attrs: nounwind uwtable
define hidden ptr @b2GetWorldFromId(i32 %0) #0 {
  %2 = alloca %struct.b2WorldId, align 2
  %3 = alloca ptr, align 8
  store i32 %0, ptr %2, align 2
  call void @llvm.lifetime.start.p0(i64 8, ptr %3) #10
  %4 = getelementptr inbounds nuw %struct.b2WorldId, ptr %2, i32 0, i32 0
  %5 = load i16, ptr %4, align 2, !tbaa !44
  %6 = zext i16 %5 to i32
  %7 = sub nsw i32 %6, 1
  %8 = sext i32 %7 to i64
  %9 = getelementptr inbounds %struct.b2World, ptr @b2_worlds, i64 %8
  store ptr %9, ptr %3, align 8, !tbaa !47
  %10 = load ptr, ptr %3, align 8, !tbaa !47
  call void @llvm.lifetime.end.p0(i64 8, ptr %3) #10
  ret ptr %10
}

; Function Attrs: nounwind uwtable
define i64 @b2World_CastPolygon(i32 %0, ptr noundef %1, <2 x float> %2, <2 x float> %3, <2 x float> %4, i64 %5, i64 %6, ptr noundef %7, ptr noundef %8) #6 {
  %10 = alloca %struct.b2TreeStats, align 4
  %11 = alloca %struct.b2WorldId, align 2
  %12 = alloca %struct.b2Transform, align 4
  %13 = alloca %struct.b2Vec2, align 4
  %14 = alloca %struct.b2QueryFilter, align 8
  %15 = alloca ptr, align 8
  %16 = alloca ptr, align 8
  %17 = alloca ptr, align 8
  %18 = alloca ptr, align 8
  %19 = alloca i32, align 4
  %20 = alloca %struct.b2ShapeCastInput, align 4
  %21 = alloca i32, align 4
  %22 = alloca %struct.b2Vec2, align 4
  %23 = alloca %struct.WorldRayCastContext, align 8
  %24 = alloca i32, align 4
  %25 = alloca %struct.b2TreeStats, align 4
  store i32 %0, ptr %11, align 2
  %26 = getelementptr inbounds nuw { <2 x float>, <2 x float> }, ptr %12, i32 0, i32 0
  store <2 x float> %2, ptr %26, align 4
  %27 = getelementptr inbounds nuw { <2 x float>, <2 x float> }, ptr %12, i32 0, i32 1
  store <2 x float> %3, ptr %27, align 4
  store <2 x float> %4, ptr %13, align 4
  %28 = getelementptr inbounds nuw { i64, i64 }, ptr %14, i32 0, i32 0
  store i64 %5, ptr %28, align 8
  %29 = getelementptr inbounds nuw { i64, i64 }, ptr %14, i32 0, i32 1
  store i64 %6, ptr %29, align 8
  store ptr %1, ptr %15, align 8, !tbaa !406
  store ptr %7, ptr %16, align 8, !tbaa !12
  store ptr %8, ptr %17, align 8, !tbaa !12
  call void @llvm.memset.p0.i64(ptr align 4 %10, i8 0, i64 8, i1 false)
  call void @llvm.lifetime.start.p0(i64 8, ptr %18) #10
  %30 = load i32, ptr %11, align 2
  %31 = call ptr @b2GetWorldFromId(i32 %30)
  store ptr %31, ptr %18, align 8, !tbaa !47
  %32 = load ptr, ptr %18, align 8, !tbaa !47
  %33 = getelementptr inbounds nuw %struct.b2World, ptr %32, i32 0, i32 60
  %34 = load i8, ptr %33, align 1, !tbaa !49, !range !90, !noundef !91
  %35 = trunc i8 %34 to i1
  br i1 %35, label %36, label %37

36:                                               ; preds = %9
  store i32 1, ptr %19, align 4
  br label %127

37:                                               ; preds = %9
  call void @llvm.lifetime.start.p0(i64 84, ptr %20) #10
  call void @llvm.lifetime.start.p0(i64 4, ptr %21) #10
  store i32 0, ptr %21, align 4, !tbaa !3
  br label %38

38:                                               ; preds = %61, %37
  %39 = load i32, ptr %21, align 4, !tbaa !3
  %40 = load ptr, ptr %15, align 8, !tbaa !406
  %41 = getelementptr inbounds nuw %struct.b2Polygon, ptr %40, i32 0, i32 4
  %42 = load i32, ptr %41, align 4, !tbaa !409
  %43 = icmp slt i32 %39, %42
  br i1 %43, label %45, label %44

44:                                               ; preds = %38
  store i32 2, ptr %19, align 4
  call void @llvm.lifetime.end.p0(i64 4, ptr %21) #10
  br label %64

45:                                               ; preds = %38
  %46 = getelementptr inbounds nuw %struct.b2ShapeCastInput, ptr %20, i32 0, i32 0
  %47 = load i32, ptr %21, align 4, !tbaa !3
  %48 = sext i32 %47 to i64
  %49 = getelementptr inbounds [8 x %struct.b2Vec2], ptr %46, i64 0, i64 %48
  call void @llvm.lifetime.start.p0(i64 8, ptr %22) #10
  %50 = load ptr, ptr %15, align 8, !tbaa !406
  %51 = getelementptr inbounds nuw %struct.b2Polygon, ptr %50, i32 0, i32 0
  %52 = load i32, ptr %21, align 4, !tbaa !3
  %53 = sext i32 %52 to i64
  %54 = getelementptr inbounds [8 x %struct.b2Vec2], ptr %51, i64 0, i64 %53
  %55 = getelementptr inbounds nuw { <2 x float>, <2 x float> }, ptr %12, i32 0, i32 0
  %56 = load <2 x float>, ptr %55, align 4
  %57 = getelementptr inbounds nuw { <2 x float>, <2 x float> }, ptr %12, i32 0, i32 1
  %58 = load <2 x float>, ptr %57, align 4
  %59 = load <2 x float>, ptr %54, align 4
  %60 = call <2 x float> @b2TransformPoint(<2 x float> %56, <2 x float> %58, <2 x float> %59)
  store <2 x float> %60, ptr %22, align 4
  call void @llvm.memcpy.p0.p0.i64(ptr align 4 %49, ptr align 4 %22, i64 8, i1 false), !tbaa.struct !162
  call void @llvm.lifetime.end.p0(i64 8, ptr %22) #10
  br label %61

61:                                               ; preds = %45
  %62 = load i32, ptr %21, align 4, !tbaa !3
  %63 = add nsw i32 %62, 1
  store i32 %63, ptr %21, align 4, !tbaa !3
  br label %38, !llvm.loop !566

64:                                               ; preds = %44
  %65 = load ptr, ptr %15, align 8, !tbaa !406
  %66 = getelementptr inbounds nuw %struct.b2Polygon, ptr %65, i32 0, i32 4
  %67 = load i32, ptr %66, align 4, !tbaa !409
  %68 = getelementptr inbounds nuw %struct.b2ShapeCastInput, ptr %20, i32 0, i32 1
  store i32 %67, ptr %68, align 4, !tbaa !558
  %69 = load ptr, ptr %15, align 8, !tbaa !406
  %70 = getelementptr inbounds nuw %struct.b2Polygon, ptr %69, i32 0, i32 3
  %71 = load float, ptr %70, align 4, !tbaa !411
  %72 = getelementptr inbounds nuw %struct.b2ShapeCastInput, ptr %20, i32 0, i32 2
  store float %71, ptr %72, align 4, !tbaa !560
  %73 = getelementptr inbounds nuw %struct.b2ShapeCastInput, ptr %20, i32 0, i32 3
  call void @llvm.memcpy.p0.p0.i64(ptr align 4 %73, ptr align 4 %13, i64 8, i1 false), !tbaa.struct !162
  %74 = getelementptr inbounds nuw %struct.b2ShapeCastInput, ptr %20, i32 0, i32 4
  store float 1.000000e+00, ptr %74, align 4, !tbaa !561
  call void @llvm.lifetime.start.p0(i64 48, ptr %23) #10
  %75 = getelementptr inbounds nuw %struct.WorldRayCastContext, ptr %23, i32 0, i32 0
  %76 = load ptr, ptr %18, align 8, !tbaa !47
  store ptr %76, ptr %75, align 8, !tbaa !537
  %77 = getelementptr inbounds nuw %struct.WorldRayCastContext, ptr %23, i32 0, i32 1
  %78 = load ptr, ptr %16, align 8, !tbaa !12
  store ptr %78, ptr %77, align 8, !tbaa !539
  %79 = getelementptr inbounds nuw %struct.WorldRayCastContext, ptr %23, i32 0, i32 2
  call void @llvm.memcpy.p0.p0.i64(ptr align 8 %79, ptr align 8 %14, i64 16, i1 false), !tbaa.struct !506
  %80 = getelementptr inbounds nuw %struct.WorldRayCastContext, ptr %23, i32 0, i32 3
  store float 1.000000e+00, ptr %80, align 8, !tbaa !540
  %81 = getelementptr i8, ptr %23, i64 36
  call void @llvm.memset.p0.i64(ptr align 4 %81, i8 0, i64 4, i1 false)
  %82 = getelementptr inbounds nuw %struct.WorldRayCastContext, ptr %23, i32 0, i32 4
  %83 = load ptr, ptr %17, align 8, !tbaa !12
  store ptr %83, ptr %82, align 8, !tbaa !541
  call void @llvm.lifetime.start.p0(i64 4, ptr %24) #10
  store i32 0, ptr %24, align 4, !tbaa !3
  br label %84

84:                                               ; preds = %120, %64
  %85 = load i32, ptr %24, align 4, !tbaa !3
  %86 = icmp slt i32 %85, 3
  br i1 %86, label %88, label %87

87:                                               ; preds = %84
  store i32 5, ptr %19, align 4
  br label %123

88:                                               ; preds = %84
  call void @llvm.lifetime.start.p0(i64 8, ptr %25) #10
  %89 = load ptr, ptr %18, align 8, !tbaa !47
  %90 = getelementptr inbounds nuw %struct.b2World, ptr %89, i32 0, i32 1
  %91 = getelementptr inbounds nuw %struct.b2BroadPhase, ptr %90, i32 0, i32 0
  %92 = getelementptr inbounds [3 x %struct.b2DynamicTree], ptr %91, i64 0, i64 0
  %93 = load i32, ptr %24, align 4, !tbaa !3
  %94 = sext i32 %93 to i64
  %95 = getelementptr inbounds %struct.b2DynamicTree, ptr %92, i64 %94
  %96 = getelementptr inbounds nuw %struct.b2QueryFilter, ptr %14, i32 0, i32 1
  %97 = load i64, ptr %96, align 8, !tbaa !508
  %98 = call i64 @b2DynamicTree_ShapeCast(ptr noundef %95, ptr noundef %20, i64 noundef %97, ptr noundef @ShapeCastCallback, ptr noundef %23)
  store i64 %98, ptr %25, align 4
  %99 = getelementptr inbounds nuw %struct.b2TreeStats, ptr %25, i32 0, i32 0
  %100 = load i32, ptr %99, align 4, !tbaa !509
  %101 = getelementptr inbounds nuw %struct.b2TreeStats, ptr %10, i32 0, i32 0
  %102 = load i32, ptr %101, align 4, !tbaa !509
  %103 = add nsw i32 %102, %100
  store i32 %103, ptr %101, align 4, !tbaa !509
  %104 = getelementptr inbounds nuw %struct.b2TreeStats, ptr %25, i32 0, i32 1
  %105 = load i32, ptr %104, align 4, !tbaa !511
  %106 = getelementptr inbounds nuw %struct.b2TreeStats, ptr %10, i32 0, i32 1
  %107 = load i32, ptr %106, align 4, !tbaa !511
  %108 = add nsw i32 %107, %105
  store i32 %108, ptr %106, align 4, !tbaa !511
  %109 = getelementptr inbounds nuw %struct.WorldRayCastContext, ptr %23, i32 0, i32 3
  %110 = load float, ptr %109, align 8, !tbaa !540
  %111 = fcmp oeq float %110, 0.000000e+00
  br i1 %111, label %112, label %113

112:                                              ; preds = %88
  store i32 1, ptr %19, align 4
  br label %117

113:                                              ; preds = %88
  %114 = getelementptr inbounds nuw %struct.WorldRayCastContext, ptr %23, i32 0, i32 3
  %115 = load float, ptr %114, align 8, !tbaa !540
  %116 = getelementptr inbounds nuw %struct.b2ShapeCastInput, ptr %20, i32 0, i32 4
  store float %115, ptr %116, align 4, !tbaa !561
  store i32 0, ptr %19, align 4
  br label %117

117:                                              ; preds = %113, %112
  call void @llvm.lifetime.end.p0(i64 8, ptr %25) #10
  %118 = load i32, ptr %19, align 4
  switch i32 %118, label %123 [
    i32 0, label %119
  ]

119:                                              ; preds = %117
  br label %120

120:                                              ; preds = %119
  %121 = load i32, ptr %24, align 4, !tbaa !3
  %122 = add nsw i32 %121, 1
  store i32 %122, ptr %24, align 4, !tbaa !3
  br label %84, !llvm.loop !567

123:                                              ; preds = %117, %87
  call void @llvm.lifetime.end.p0(i64 4, ptr %24) #10
  %124 = load i32, ptr %19, align 4
  switch i32 %124, label %126 [
    i32 5, label %125
  ]

125:                                              ; preds = %123
  store i32 1, ptr %19, align 4
  br label %126

126:                                              ; preds = %125, %123
  call void @llvm.lifetime.end.p0(i64 48, ptr %23) #10
  call void @llvm.lifetime.end.p0(i64 84, ptr %20) #10
  br label %127

127:                                              ; preds = %126, %36
  call void @llvm.lifetime.end.p0(i64 8, ptr %18) #10
  %128 = load i64, ptr %10, align 4
  ret i64 %128
}