; Function Attrs: nounwind uwtable
define i64 @b2World_CastPolygon(i32 %0, ptr noundef readonly captures(none) %1, <2 x float> %2, <2 x float> %3, <2 x float> %4, i64 %5, i64 %6, ptr noundef %7, ptr noundef %8) local_unnamed_addr #8 {
  %10 = alloca %struct.b2ShapeCastInput, align 4
  %11 = alloca %struct.WorldRayCastContext, align 8
  %12 = and i32 %0, 65535
  %13 = zext nneg i32 %12 to i64
  %14 = getelementptr %struct.b2World, ptr @b2_worlds, i64 %13
  %15 = getelementptr i8, ptr %14, i64 -1792
  %16 = getelementptr i8, ptr %14, i64 -9
  %17 = load i8, ptr %16, align 1, !tbaa !35, !range !77, !noundef !78
  %18 = trunc nuw i8 %17 to i1
  br i1 %18, label %60, label %19

19:                                               ; preds = %9
  call void @llvm.lifetime.start.p0(i64 84, ptr nonnull %10) #22
  %20 = getelementptr inbounds nuw i8, ptr %1, i64 140
  %21 = load i32, ptr %20, align 4, !tbaa !323
  %22 = icmp sgt i32 %21, 0
  br i1 %22, label %.lr.ph, label %._crit_edge

.lr.ph:                                           ; preds = %19
  %.sroa.3.8.vec.extract.i = extractelement <2 x float> %3, i64 0
  %.sroa.3.12.vec.extract.i = extractelement <2 x float> %3, i64 1
  %.sroa.06.0.vec.extract.i = extractelement <2 x float> %2, i64 0
  %.sroa.06.4.vec.extract.i = extractelement <2 x float> %2, i64 1
  %wide.trip.count = zext nneg i32 %21 to i64
  br label %35

._crit_edge:                                      ; preds = %35, %19
  %23 = getelementptr inbounds nuw i8, ptr %10, i64 64
  store i32 %21, ptr %23, align 4, !tbaa !452
  %24 = getelementptr inbounds nuw i8, ptr %1, i64 136
  %25 = load float, ptr %24, align 4, !tbaa !325
  %26 = getelementptr inbounds nuw i8, ptr %10, i64 68
  store float %25, ptr %26, align 4, !tbaa !454
  %27 = getelementptr inbounds nuw i8, ptr %10, i64 72
  store <2 x float> %4, ptr %27, align 4
  %28 = getelementptr inbounds nuw i8, ptr %10, i64 80
  store float 1.000000e+00, ptr %28, align 4, !tbaa !455
  call void @llvm.lifetime.start.p0(i64 48, ptr nonnull %11) #22
  store ptr %15, ptr %11, align 8, !tbaa !436
  %29 = getelementptr inbounds nuw i8, ptr %11, i64 8
  store ptr %7, ptr %29, align 8, !tbaa !438
  %30 = getelementptr inbounds nuw i8, ptr %11, i64 16
  store i64 %5, ptr %30, align 8, !tbaa !227
  %.sroa.2.0..sroa_idx = getelementptr inbounds nuw i8, ptr %11, i64 24
  store i64 %6, ptr %.sroa.2.0..sroa_idx, align 8, !tbaa !227
  %31 = getelementptr inbounds nuw i8, ptr %11, i64 32
  store float 1.000000e+00, ptr %31, align 8, !tbaa !439
  %32 = getelementptr inbounds nuw i8, ptr %11, i64 36
  store i32 0, ptr %32, align 4
  %33 = getelementptr inbounds nuw i8, ptr %11, i64 40
  store ptr %8, ptr %33, align 8, !tbaa !440
  %34 = getelementptr i8, ptr %14, i64 -1752
  br label %48

35:                                               ; preds = %.lr.ph, %35
  %indvars.iv = phi i64 [ 0, %.lr.ph ], [ %indvars.iv.next, %35 ]
  %36 = getelementptr inbounds nuw [8 x %struct.b2Vec2], ptr %10, i64 0, i64 %indvars.iv
  %37 = getelementptr inbounds nuw [8 x %struct.b2Vec2], ptr %1, i64 0, i64 %indvars.iv
  %38 = load <2 x float>, ptr %37, align 4
  %.sroa.0.0.vec.extract.i = extractelement <2 x float> %38, i64 0
  %39 = fmul <2 x float> %3, %38
  %40 = extractelement <2 x float> %39, i64 0
  %.sroa.0.4.vec.extract.i = extractelement <2 x float> %38, i64 1
  %41 = fmul float %.sroa.3.12.vec.extract.i, %.sroa.0.4.vec.extract.i
  %42 = fsub float %40, %41
  %43 = fadd float %.sroa.06.0.vec.extract.i, %42
  %44 = fmul float %.sroa.3.12.vec.extract.i, %.sroa.0.0.vec.extract.i
  %45 = fmul float %.sroa.3.8.vec.extract.i, %.sroa.0.4.vec.extract.i
  %46 = fadd float %44, %45
  %47 = fadd float %.sroa.06.4.vec.extract.i, %46
  %.sroa.011.0.vec.insert.i = insertelement <2 x float> poison, float %43, i64 0
  %.sroa.011.4.vec.insert.i = insertelement <2 x float> %.sroa.011.0.vec.insert.i, float %47, i64 1
  store <2 x float> %.sroa.011.4.vec.insert.i, ptr %36, align 4
  %indvars.iv.next = add nuw nsw i64 %indvars.iv, 1
  %exitcond.not = icmp eq i64 %indvars.iv.next, %wide.trip.count
  br i1 %exitcond.not, label %._crit_edge, label %35, !llvm.loop !458

48:                                               ; preds = %._crit_edge, %55
  %indvars.iv39 = phi i64 [ 0, %._crit_edge ], [ %indvars.iv.next40, %55 ]
  %.sroa.024.136 = phi i32 [ 0, %._crit_edge ], [ %51, %55 ]
  %.sroa.426.135 = phi i32 [ 0, %._crit_edge ], [ %52, %55 ]
  %49 = getelementptr inbounds nuw %struct.b2DynamicTree, ptr %34, i64 %indvars.iv39
  %50 = call i64 @b2DynamicTree_ShapeCast(ptr noundef nonnull %49, ptr noundef nonnull %10, i64 noundef %6, ptr noundef nonnull @ShapeCastCallback, ptr noundef nonnull %11) #22
  %.sroa.0.0.extract.trunc = trunc i64 %50 to i32
  %.sroa.4.0.extract.shift = lshr i64 %50, 32
  %.sroa.4.0.extract.trunc = trunc nuw i64 %.sroa.4.0.extract.shift to i32
  %51 = add nsw i32 %.sroa.024.136, %.sroa.0.0.extract.trunc
  %52 = add nsw i32 %.sroa.426.135, %.sroa.4.0.extract.trunc
  %53 = load float, ptr %31, align 8, !tbaa !439
  %54 = fcmp une float %53, 0.000000e+00
  br i1 %54, label %55, label %.critedge

55:                                               ; preds = %48
  store float %53, ptr %28, align 4, !tbaa !455
  %indvars.iv.next40 = add nuw nsw i64 %indvars.iv39, 1
  %exitcond42.not = icmp eq i64 %indvars.iv.next40, 3
  br i1 %exitcond42.not, label %.critedge, label %48, !llvm.loop !459

.critedge:                                        ; preds = %48, %55
  call void @llvm.lifetime.end.p0(i64 48, ptr nonnull %11) #22
  call void @llvm.lifetime.end.p0(i64 84, ptr nonnull %10) #22
  %56 = zext i32 %52 to i64
  %57 = shl nuw i64 %56, 32
  %58 = zext i32 %51 to i64
  %59 = or disjoint i64 %57, %58
  br label %60

60:                                               ; preds = %9, %.critedge
  %.sroa.024.0.insert.insert = phi i64 [ %59, %.critedge ], [ 0, %9 ]
  ret i64 %.sroa.024.0.insert.insert
}